; Function Attrs: mustprogress uwtable
define noundef zeroext i1 @_ZNK6casadi8OptiNode12old_callbackEv(ptr noundef nonnull align 8 dereferenceable(672) %0) local_unnamed_addr #3 align 2 {
  %2 = getelementptr inbounds i8, ptr %0, i64 576
  %3 = tail call noundef zeroext i1 @_ZNK6casadi12SharedObject7is_nullEv(ptr noundef nonnull align 8 dereferenceable(8) %2)
  br i1 %3, label %9, label %4

4:                                                ; preds = %1
  %5 = tail call noundef ptr @_ZNK6casadi8Function3getEv(ptr noundef nonnull align 8 dereferenceable(8) %2)
  %6 = getelementptr inbounds i8, ptr %5, i64 1304
  %7 = load ptr, ptr %6, align 8
  %8 = icmp ne ptr %7, %0
  br label %9

9:                                                ; preds = %1, %4
  %.0 = phi i1 [ %8, %4 ], [ false, %1 ]
  ret i1 %.0
}